(dp1
S'output'
p2
S"<type 'exceptions.AttributeError'> "
p3
sS'layer'
p4
S'/Users/Shakti/Downloads/web2py/web2py.app/Contents/Resources/applications/Complaint_Portal/controllers/APIs.py'
p5
sS'code'
p6
S'def password_reset():\n    if auth.is_logged_in():\n        user = db.users(auth.user.id)\n        old_pass = str(request.vars["oldPass"]).strip()\n        new_pass = str(request.vars["newPass"]).strip()\n        user_pass = auth.user.password\n        if user_pass==old_pass :\n            auth.user.password = new_pass\n            return dict(success=True)\n        else:\n            return dict(success=False)\n\ndef make_complaint():\n    if auth.is_logged_in():\n        user = db.users(auth.user.id)\n        complaint_level = int(request.vars["complaintlevel"]).strip()\n        complaint_title = str(request.vars["title"]).strip()\n        complaint_body = str(request.vars["description"]).strip()\n        categoryID = int(request.vars["complaintcategory"]).strip()\n        db.Complaint.insert(UserID=auth.user.id, title=complaint_title, body=complaint_body, ComplaintCategoryID=categoryID, ComplaintLevelID=complaint_level)\n        user_hostel = user.Hostel\n        #TODO: HANDLE NOTIFICATIONS\n        return dict(success=True)\n\ndef specific_complaint():\n    if auth.is_logged_in():\n        complaintID = int(request.vars["compId"]).strip()\n        complaint = db.Complaint(complaintID)\n        return dict(filedByUserId=complaint.UserID, title=complaint.title, description=complaint.body, createdat=complaint.CreatedAt, complaintstatus=complaint.ComplaintStatus, complaintcategory=complaint.ComplaintCategoryID, complaintlevel=complaint.ComplaintLevelID, upvotes=complaint.Upvotes, downvotes=complaint.Downvotes)\n\ndef list_all_user_complaints():\n    if auth.is_logged_in():\n        user = db.users(auth.user.id)\n        user_complaints = db(db.Complaint.UserID==auth.user.id).select(orderby=~db.Complaint.CreatedAt)\n        complaint_id=[]\n        complaint_title=[]\n        complaint_body=[]\n        complaint_time=[]\n        complaint_upvotes=[]\n        complaint_downvotes=[]\n        complaint_level=[]\n        complaint_status=[]\n        complaint_category=[]\n        for complaint in user_complaints:\n            complaint_id.append(complaint.id)\n            complaint_title.append(complaint.title)\n            complaint_body.append(complaint.body)\n            complaint_time.append(complaint.CreatedAt)\n            complaint_upvotes.append(complaint.Upvotes)\n            complaint_downvotes.append(complaint.Downvotes)\n            complaint_level.append(complaint.ComplaintLevelID)\n            complaint_status.append(complaint.ComplaintStatus)\n            complaint_category.append(complaint.ComplaintCategoryID)\n        return dict(compId=complaint_id, filedByUserId=auth.user.id, title=complaint_title, description=complaint_body, createdat=complaint_time, complaintstatus=complaint_status, complaintcategory=complaint_category, complaintlevel=complaint_level, upvotes=complaint_upvotes, downvotes=complaint_downvotes)\n\ndef list_all_personal_complaints():\n    if auth.is_logged_in():\n        personal_complaints = db(db.Complaint.ComplaintLevelID==0).select(orderby=~db.Complaint.CreatedAt)\n        complaint_id=[]\n        complaint_user=[]\n        complaint_title=[]\n        complaint_body=[]\n        complaint_time=[]\n        complaint_upvotes=[]\n        complaint_downvotes=[]\n        complaint_status=[]\n        complaint_category=[]\n        for complaint in personal_complaints:\n            complaint_id.append(complaint.id)\n            complaint_user.append(complaint.UserID)\n            complaint_title.append(complaint.title)\n            complaint_body.append(complaint.body)\n            complaint_time.append(complaint.CreatedAt)\n            complaint_upvotes.append(complaint.Upvotes)\n            complaint_downvotes.append(complaint.Downvotes)\n            complaint_status.append(complaint.ComplaintStatus)\n            complaint_category.append(complaint.ComplaintCategoryID)\n        return dict(compId=complaint_id, filedByUserId=complaint_user, title=complaint_title, description=complaint_body, createdat=complaint_time, complaintstatus=complaint_status, complaintcategory=complaint_category, complaintlevel=0, upvotes=complaint_upvotes, downvotes=complaint_downvotes)\n\ndef list_all_hostel_complaints():\n    if auth.is_logged_in():\n        hostel_complaints = db(db.Complaint.ComplaintLevelID==1).select(orderby=~db.Complaint.CreatedAt)\n        complaint_id=[]\n        complaint_user=[]\n        complaint_title=[]\n        complaint_body=[]\n        complaint_time=[]\n        complaint_upvotes=[]\n        complaint_downvotes=[]\n        complaint_status=[]\n        complaint_category=[]\n        user_hostel=[]\n        for complaint in hostel_complaints:\n            complaint_id.append(complaint.id)\n            complaint_user.append(complaint.UserID)\n            user_hostel.append((db.users(UserID)).Hostel)\n            complaint_title.append(complaint.title)\n            complaint_body.append(complaint.body)\n            complaint_time.append(complaint.CreatedAt)\n            complaint_upvotes.append(complaint.Upvotes)\n            complaint_downvotes.append(complaint.Downvotes)\n            complaint_status.append(complaint.ComplaintStatus)\n            complaint_category.append(complaint.ComplaintCategoryID)\n        return dict(compId=complaint_id, filedByUserId=complaint_user, title=complaint_title, description=complaint_body, createdat=complaint_time, complaintstatus=complaint_status, complaintcategory=complaint_category, complaintlevel=0, upvotes=complaint_upvotes, downvotes=complaint_downvotes, hostels=user_hostel)\n\ndef list_all_institute_complaints():\n    if auth.is_logged_in():\n        institute_complaints = db(db.Complaint.ComplaintLevelID==2).select(orderby=~db.Complaint.CreatedAt)\n        complaint_id=[]\n        complaint_user=[]\n        complaint_title=[]\n        complaint_body=[]\n        complaint_time=[]\n        complaint_upvotes=[]\n        complaint_downvotes=[]\n        complaint_status=[]\n        complaint_category=[]\n        for complaint in institute_complaints:\n            complaint_id.append(complaint.id)\n            complaint_user.append(complaint.UserID)\n            complaint_title.append(complaint.title)\n            complaint_body.append(complaint.body)\n            complaint_time.append(complaint.CreatedAt)\n            complaint_upvotes.append(complaint.Upvotes)\n            complaint_downvotes.append(complaint.Downvotes)\n            complaint_status.append(complaint.ComplaintStatus)\n            complaint_category.append(complaint.ComplaintCategoryID)\n        return dict(compId=complaint_id, filedByUserId=complaint_user, title=complaint_title, description=complaint_body, createdat=complaint_time, complaintstatus=complaint_status, complaintcategory=complaint_category, complaintlevel=0, upvotes=complaint_upvotes, downvotes=complaint_downvotes)\n\ndef get_comments():\n    if auth.is_logged_in():\n        complaintID = int(request.vars["complaintid"]).strip()\n        comments = db(db.Comments.ComplaintID==complaintID).select(orderby=~db.Comments.WrittenAt)\n        comment_body = []\n        times_readable = []\n        comment_users =[]\n        for comment in comments:\n            comment_body.append(comment.body)\n            times_readable.append(comment.WrittenAt)\n            comment_users.append(comment.UserID)\n        return dict(description=comment_body, createduserid=comment_users, createdat=times_readable)\n\ndef add_comment():\n    if auth.is_logged_in():\n        comment_body = str(request.vars["description"]).strip()\n        complaintID = int(request.vars["complaintid"]).strip()\n        db.Comments.insert(UserID=auth.user.id, ComplaintID=complaintID, body=comment_body)\n        return dict(success=True)\n\ndef upvote():\n    if auth.is_logged_in():\n        complaintID = int(request.vars["complaintId"]).strip()\n        complaint = db.Complaint(complaintID)\n        if complaint:\n            complaint.update_record(Upvotes = complaint.Upvotes + 1)\n            return dict(success=True)\n        else:\n            return dict(success=False)\n\ndef downvote():\n    if auth.is_logged_in():\n        complaintID = int(request.vars["complaintId"]).strip()\n        complaint = db.Complaint(complaintID)\n        if complaint:\n            complaint.update_record(Downvotes = complaint.Downvotes + 1)\n            return dict(success=True)\n        else:\n            return dict(success=False)\n\ndef addUser():\n    if auth.is_logged_in:\n        admin = db.users(auth.user.id)\n        if admin.type_ == 0:\n            firstName = str(request.vars["firstName"]).strip()\n            lastName = str(request.vars["lastName"]).strip()\n            kerberos = str(request.vars["kerberosid"]).strip()\n            Email = str(request.vars["email"]).strip()\n            entryno = str(request.vars["entrynumber"]).strip()\n            passWord = str(request.vars["password"]).strip()\n            category = int(request.vars["category"]).strip()\n            hostel = str(request.vars["hostel"]).strip()\n            db.users.insert(first_name=firstName, last_name=lastName, username=kerberos, email=Email, entry_no=entryno, password=passWord, type_=category, Hostel=hostel)\n            return dict(success=True)\n        else:\n            return dict(success=False)\n\ndef getUser():\n    user_id = int(request.vars["id"]).strip()\n    user = db.users(user_id)\n    return dict(firstName=user.first_name, lastName=user.last_name, kerberosID=user.username, password=user.password, category=user.type_, hostel=user.Hostel)\n\ndef getListOfCategories():\n    list_of_categories = []\n    for categories in db().select(db.Complaint_Category.ALL):\n        list_of_categories.append(categories.Category_Name)\n    return list_of_categories\n\n#def getNotifications():\n#    return dict()\n\nresponse._vars=response._caller(password_reset)\n'
p7
sS'snapshot'
p8
(dp9
S'exception'
p10
(dp11
S'__hash__'
p12
S"<method-wrapper '__hash__' of exceptions.AttributeError object>"
p13
sS'__setattr__'
p14
S"<method-wrapper '__setattr__' of exceptions.AttributeError object>"
p15
sS'__reduce_ex__'
p16
S'<built-in method __reduce_ex__ of exceptions.AttributeError object>'
p17
sS'__getslice__'
p18
S"<method-wrapper '__getslice__' of exceptions.AttributeError object>"
p19
sS'__getitem__'
p20
S"<method-wrapper '__getitem__' of exceptions.AttributeError object>"
p21
sS'__setstate__'
p22
S'<built-in method __setstate__ of exceptions.AttributeError object>'
p23
sS'args'
p24
S'()'
p25
sS'__reduce__'
p26
S'<built-in method __reduce__ of exceptions.AttributeError object>'
p27
sS'__str__'
p28
S"<method-wrapper '__str__' of exceptions.AttributeError object>"
p29
sS'__format__'
p30
S'<built-in method __format__ of exceptions.AttributeError object>'
p31
sS'__getattribute__'
p32
S"<method-wrapper '__getattribute__' of exceptions.AttributeError object>"
p33
sS'__class__'
p34
S"<type 'exceptions.AttributeError'>"
p35
sS'__unicode__'
p36
S'<built-in method __unicode__ of exceptions.AttributeError object>'
p37
sS'__delattr__'
p38
S"<method-wrapper '__delattr__' of exceptions.AttributeError object>"
p39
sS'__subclasshook__'
p40
S'<built-in method __subclasshook__ of type object>'
p41
sS'__repr__'
p42
S"<method-wrapper '__repr__' of exceptions.AttributeError object>"
p43
sS'__dict__'
p44
S'{}'
p45
sS'__sizeof__'
p46
S'<built-in method __sizeof__ of exceptions.AttributeError object>'
p47
sS'__doc__'
p48
S"'Attribute not found.'"
p49
sS'__init__'
p50
S"<method-wrapper '__init__' of exceptions.AttributeError object>"
p51
sS'__new__'
p52
S'<built-in method __new__ of type object>'
p53
ssS'evalue'
p54
S''
sS'request'
p55
cgluon.html
XML_unpickle
p56
(S's&]\x00\x00<div><table><tr><td style="font-weight:bold;vertical-align:top;">ajax</td><td style="vertical-align:top;">:</td><td><div>False</div></td></tr><tr><td style="font-weight:bold;vertical-align:top;">application</td><td style="vertical-align:top;">:</td><td><div>Complaint_Portal</div></td></tr><tr><td style="font-weight:bold;vertical-align:top;">args</td><td style="vertical-align:top;">:</td><td><div><table></table></div></td></tr><tr><td style="font-weight:bold;vertical-align:top;">cid</td><td style="vertical-align:top;">:</td><td><div>None</div></td></tr><tr><td style="font-weight:bold;vertical-align:top;">client</td><td style="vertical-align:top;">:</td><td><div>10.192.45.89</div></td></tr><tr><td style="font-weight:bold;vertical-align:top;">controller</td><td style="vertical-align:top;">:</td><td><div>APIs</div></td></tr><tr><td style="font-weight:bold;vertical-align:top;">cookies</td><td style="vertical-align:top;">:</td><td><div><table><tr><td style="font-weight:bold;vertical-align:top;">session_id_admin</td><td style="vertical-align:top;">:</td><td><div>10.192.45.89-fc393b1b-6967-409c-ac30-aec15b481ceb<table><tr><td style="font-weight:bold;vertical-align:top;">comment</td><td style="vertical-align:top;">:</td><td><div></div></td></tr><tr><td style="font-weight:bold;vertical-align:top;">domain</td><td style="vertical-align:top;">:</td><td><div></div></td></tr><tr><td style="font-weight:bold;vertical-align:top;">expires</td><td style="vertical-align:top;">:</td><td><div></div></td></tr><tr><td style="font-weight:bold;vertical-align:top;">httponly</td><td style="vertical-align:top;">:</td><td><div></div></td></tr><tr><td style="font-weight:bold;vertical-align:top;">max-age</td><td style="vertical-align:top;">:</td><td><div></div></td></tr><tr><td style="font-weight:bold;vertical-align:top;">path</td><td style="vertical-align:top;">:</td><td><div></div></td></tr><tr><td style="font-weight:bold;vertical-align:top;">secure</td><td style="vertical-align:top;">:</td><td><div></div></td></tr><tr><td style="font-weight:bold;vertical-align:top;">version</td><td style="vertical-align:top;">:</td><td><div></div></td></tr></table></div></td></tr><tr><td style="font-weight:bold;vertical-align:top;">session_id_complaint_portal</td><td style="vertical-align:top;">:</td><td><div>10.192.45.89-0ccff27d-114a-4a22-b813-3b430eb22bad<table><tr><td style="font-weight:bold;vertical-align:top;">comment</td><td style="vertical-align:top;">:</td><td><div></div></td></tr><tr><td style="font-weight:bold;vertical-align:top;">domain</td><td style="vertical-align:top;">:</td><td><div></div></td></tr><tr><td style="font-weight:bold;vertical-align:top;">expires</td><td style="vertical-align:top;">:</td><td><div></div></td></tr><tr><td style="font-weight:bold;vertical-align:top;">httponly</td><td style="vertical-align:top;">:</td><td><div></div></td></tr><tr><td style="font-weight:bold;vertical-align:top;">max-age</td><td style="vertical-align:top;">:</td><td><div></div></td></tr><tr><td style="font-weight:bold;vertical-align:top;">path</td><td style="vertical-align:top;">:</td><td><div></div></td></tr><tr><td style="font-weight:bold;vertical-align:top;">secure</td><td style="vertical-align:top;">:</td><td><div></div></td></tr><tr><td style="font-weight:bold;vertical-align:top;">version</td><td style="vertical-align:top;">:</td><td><div></div></td></tr></table></div></td></tr><tr><td style="font-weight:bold;vertical-align:top;">session_id_welcome</td><td style="vertical-align:top;">:</td><td><div>10.192.45.89-1bc6634d-132f-44bd-9dd7-b948d8024abd<table><tr><td style="font-weight:bold;vertical-align:top;">comment</td><td style="vertical-align:top;">:</td><td><div></div></td></tr><tr><td style="font-weight:bold;vertical-align:top;">domain</td><td style="vertical-align:top;">:</td><td><div></div></td></tr><tr><td style="font-weight:bold;vertical-align:top;">expires</td><td style="vertical-align:top;">:</td><td><div></div></td></tr><tr><td style="font-weight:bold;vertical-align:top;">httponly</td><td style="vertical-align:top;">:</td><td><div></div></td></tr><tr><td style="font-weight:bold;vertical-align:top;">max-age</td><td style="vertical-align:top;">:</td><td><div></div></td></tr><tr><td style="font-weight:bold;vertical-align:top;">path</td><td style="vertical-align:top;">:</td><td><div></div></td></tr><tr><td style="font-weight:bold;vertical-align:top;">secure</td><td style="vertical-align:top;">:</td><td><div></div></td></tr><tr><td style="font-weight:bold;vertical-align:top;">version</td><td style="vertical-align:top;">:</td><td><div></div></td></tr></table></div></td></tr></table></div></td></tr><tr><td style="font-weight:bold;vertical-align:top;">env</td><td style="vertical-align:top;">:</td><td><div><table><tr><td style="font-weight:bold;vertical-align:top;">HTTP_ACCEPT</td><td style="vertical-align:top;">:</td><td><div>text/html,application/xhtml+xml,application/xml;q=0.9,*/*;q=0.8</div></td></tr><tr><td style="font-weight:bold;vertical-align:top;">HTTP_ACCEPT_ENCODING</td><td style="vertical-align:top;">:</td><td><div>gzip, deflate</div></td></tr><tr><td style="font-weight:bold;vertical-align:top;">HTTP_ACCEPT_LANGUAGE</td><td style="vertical-align:top;">:</td><td><div>en-us</div></td></tr><tr><td style="font-weight:bold;vertical-align:top;">HTTP_CONNECTION</td><td style="vertical-align:top;">:</td><td><div>keep-alive</div></td></tr><tr><td style="font-weight:bold;vertical-align:top;">HTTP_COOKIE</td><td style="vertical-align:top;">:</td><td><div>session_id_admin=10.192.45.89-fc393b1b-6967-409c-ac30-aec15b481ceb; session_id_complaint_portal=10.192.45.89-0ccff27d-114a-4a22-b813-3b430eb22bad; session_id_welcome=10.192.45.89-1bc6634d-132f-44bd-9dd7-b948d8024abd</div></td></tr><tr><td style="font-weight:bold;vertical-align:top;">HTTP_HOST</td><td style="vertical-align:top;">:</td><td><div>10.192.45.89:8000</div></td></tr><tr><td style="font-weight:bold;vertical-align:top;">HTTP_USER_AGENT</td><td style="vertical-align:top;">:</td><td><div>Mozilla/5.0 (Macintosh; Intel Mac OS X 10_10_2) AppleWebKit/600.3.18 (KHTML, like Gecko) Version/8.0.3 Safari/600.3.18</div></td></tr><tr><td style="font-weight:bold;vertical-align:top;">PATH_INFO</td><td style="vertical-align:top;">:</td><td><div>/Complaint_Portal/APIs/password_reset.json</div></td></tr><tr><td style="font-weight:bold;vertical-align:top;">QUERY_STRING</td><td style="vertical-align:top;">:</td><td><div>old_pass=tyagi&amp;new_pass=akshit</div></td></tr><tr><td style="font-weight:bold;vertical-align:top;">REMOTE_ADDR</td><td style="vertical-align:top;">:</td><td><div>10.192.45.89</div></td></tr><tr><td style="font-weight:bold;vertical-align:top;">REMOTE_PORT</td><td style="vertical-align:top;">:</td><td><div>60186</div></td></tr><tr><td style="font-weight:bold;vertical-align:top;">REQUEST_METHOD</td><td style="vertical-align:top;">:</td><td><div>GET</div></td></tr><tr><td style="font-weight:bold;vertical-align:top;">SCRIPT_NAME</td><td style="vertical-align:top;">:</td><td><div></div></td></tr><tr><td style="font-weight:bold;vertical-align:top;">SERVER_NAME</td><td style="vertical-align:top;">:</td><td><div>Shakti.local</div></td></tr><tr><td style="font-weight:bold;vertical-align:top;">SERVER_PORT</td><td style="vertical-align:top;">:</td><td><div>8000</div></td></tr><tr><td style="font-weight:bold;vertical-align:top;">SERVER_PROTOCOL</td><td style="vertical-align:top;">:</td><td><div>HTTP/1.1</div></td></tr><tr><td style="font-weight:bold;vertical-align:top;">SERVER_SOFTWARE</td><td style="vertical-align:top;">:</td><td><div>Rocket 1.2.6</div></td></tr><tr><td style="font-weight:bold;vertical-align:top;">app_folders</td><td style="vertical-align:top;">:</td><td><div>set([&#x27;/Users/Shakti/Downloads/web2py/web2py.app/Contents/Resources/applications/welcome/&#x27;, &#x27;/Users/Shakti/Downloads/web2py/web2py.app/Contents/Resources/applications/admin/&#x27;, &#x27;/Users/Shakti/Downloads/web2py/web2py.app/Contents/Resources/applications/Complaint_Portal/&#x27;])</div></td></tr><tr><td style="font-weight:bold;vertical-align:top;">applications_parent</td><td style="vertical-align:top;">:</td><td><div>/Users/Shakti/Downloads/web2py/web2py.app/Contents/Resources</div></td></tr><tr><td style="font-weight:bold;vertical-align:top;">cmd_args</td><td style="vertical-align:top;">:</td><td><div><table></table></div></td></tr><tr><td style="font-weight:bold;vertical-align:top;">cmd_options</td><td style="vertical-align:top;">:</td><td><div>&lt;Values at 0x10403ad88: {&#x27;verbose&#x27;: False, &#x27;ip&#x27;: &#x27;127.0.0.1&#x27;, &#x27;debuglevel&#x27;: 30, &#x27;with_scheduler&#x27;: False, &#x27;ips&#x27;: [&#x27;10.192.45.89&#x27;, &#x27;fe80::daa2:5eff:fe8c:4b5d%en1&#x27;], &#x27;shutdown_timeout&#x27;: 5, &#x27;taskbar&#x27;: False, &#x27;with_coverage&#x27;: False, &#x27;scheduler_groups&#x27;: None, &#x27;port&#x27;: 8000, &#x27;maxthreads&#x27;: None, &#x27;softcron&#x27;: False, &#x27;server_name&#x27;: &#x27;Shakti.local&#x27;, &#x27;bpython&#x27;: False, &#x27;nogui&#x27;: False, &#x27;pid_filename&#x27;: &#x27;httpserver.pid&#x27;, &#x27;print_errors&#x27;: False, &#x27;extcron&#x27;: False, &#x27;runcron&#x27;: False, &#x27;run_system_tests&#x27;: False, &#x27;test&#x27;: None, &#x27;folder&#x27;: &#x27;/Users/Shakti/Downloads/web2py/web2py.app/Contents/Resources&#x27;, &#x27;config&#x27;: &#x27;&#x27;, &#x27;minthreads&#x27;: None, &#x27;shell&#x27;: None, &#x27;run&#x27;: &#x27;&#x27;, &#x27;log_filename&#x27;: &#x27;httpserver.log&#x27;, &#x27;profiler_dir&#x27;: None, &#x27;args&#x27;: [&#x27;&#x27;], &#x27;socket_timeout&#x27;: 5, &#x27;ssl_ca_certificate&#x27;: None, &#x27;scheduler&#x27;: None, &#x27;interfaces&#x27;: None, &#x27;ssl_private_key&#x27;: &#x27;&#x27;, &#x27;gae&#x27;: None, &#x27;password&#x27;: &#x27;&lt;ask&gt;&#x27;, &#x27;request_queue_size&#x27;: 5, &#x27;ssl_certificate&#x27;: &#x27;&#x27;, &#x27;cronjob&#x27;: False, &#x27;numthreads&#x27;: None, &#x27;quiet&#x27;: False, &#x27;import_models&#x27;: False, &#x27;timeout&#x27;: 10, &#x27;plain&#x27;: False, &#x27;nobanner&#x27;: False}&gt;</div></td></tr><tr><td style="font-weight:bold;vertical-align:top;">db_sessions</td><td style="vertical-align:top;">:</td><td><div>set([])</div></td></tr><tr><td style="font-weight:bold;vertical-align:top;">debugging</td><td style="vertical-align:top;">:</td><td><div>True</div></td></tr><tr><td style="font-weight:bold;vertical-align:top;">gluon_parent</td><td style="vertical-align:top;">:</td><td><div>/Users/Shakti/Downloads/web2py/web2py.app/Contents/Resources</div></td></tr><tr><td style="font-weight:bold;vertical-align:top;">http_accept</td><td style="vertical-align:top;">:</td><td><div>text/html,application/xhtml+xml,application/xml;q=0.9,*/*;q=0.8</div></td></tr><tr><td style="font-weight:bold;vertical-align:top;">http_accept_encoding</td><td style="vertical-align:top;">:</td><td><div>gzip, deflate</div></td></tr><tr><td style="font-weight:bold;vertical-align:top;">http_accept_language</td><td style="vertical-align:top;">:</td><td><div>en-us</div></td></tr><tr><td style="font-weight:bold;vertical-align:top;">http_connection</td><td style="vertical-align:top;">:</td><td><div>keep-alive</div></td></tr><tr><td style="font-weight:bold;vertical-align:top;">http_cookie</td><td style="vertical-align:top;">:</td><td><div>session_id_admin=10.192.45.89-fc393b1b-6967-409c-ac30-aec15b481ceb; session_id_complaint_portal=10.192.45.89-0ccff27d-114a-4a22-b813-3b430eb22bad; session_id_welcome=10.192.45.89-1bc6634d-132f-44bd-9dd7-b948d8024abd</div></td></tr><tr><td style="font-weight:bold;vertical-align:top;">http_host</td><td style="vertical-align:top;">:</td><td><div>10.192.45.89:8000</div></td></tr><tr><td style="font-weight:bold;vertical-align:top;">http_user_agent</td><td style="vertical-align:top;">:</td><td><div>Mozilla/5.0 (Macintosh; Intel Mac OS X 10_10_2) AppleWebKit/600.3.18 (KHTML, like Gecko) Version/8.0.3 Safari/600.3.18</div></td></tr><tr><td style="font-weight:bold;vertical-align:top;">is_jython</td><td style="vertical-align:top;">:</td><td><div>False</div></td></tr><tr><td style="font-weight:bold;vertical-align:top;">is_pypy</td><td style="vertical-align:top;">:</td><td><div>False</div></td></tr><tr><td style="font-weight:bold;vertical-align:top;">is_source</td><td style="vertical-align:top;">:</td><td><div>True</div></td></tr><tr><td style="font-weight:bold;vertical-align:top;">local_hosts</td><td style="vertical-align:top;">:</td><td><div><table><tr><td><div>10.192.45.89</div></td></tr><tr><td><div>::ffff:127.0.0.1</div></td></tr><tr><td><div>::1</div></td></tr><tr><td><div>Shakti.local</div></td></tr><tr><td><div>fe80::daa2:5eff:fe8c:4b5d%en1</div></td></tr><tr><td><div>127.0.0.1</div></td></tr></table></div></td></tr><tr><td style="font-weight:bold;vertical-align:top;">path_info</td><td style="vertical-align:top;">:</td><td><div>/Complaint_Portal/APIs/password_reset.json</div></td></tr><tr><td style="font-weight:bold;vertical-align:top;">query_string</td><td style="vertical-align:top;">:</td><td><div>old_pass=tyagi&amp;new_pass=akshit</div></td></tr><tr><td style="font-weight:bold;vertical-align:top;">remote_addr</td><td style="vertical-align:top;">:</td><td><div>10.192.45.89</div></td></tr><tr><td style="font-weight:bold;vertical-align:top;">remote_port</td><td style="vertical-align:top;">:</td><td><div>60186</div></td></tr><tr><td style="font-weight:bold;vertical-align:top;">request_method</td><td style="vertical-align:top;">:</td><td><div>GET</div></td></tr><tr><td style="font-weight:bold;vertical-align:top;">request_uri</td><td style="vertical-align:top;">:</td><td><div>/Complaint_Portal/APIs/password_reset.json?old_pass=tyagi&amp;new_pass=akshit</div></td></tr><tr><td style="font-weight:bold;vertical-align:top;">script_name</td><td style="vertical-align:top;">:</td><td><div></div></td></tr><tr><td style="font-weight:bold;vertical-align:top;">server_name</td><td style="vertical-align:top;">:</td><td><div>Shakti.local</div></td></tr><tr><td style="font-weight:bold;vertical-align:top;">server_port</td><td style="vertical-align:top;">:</td><td><div>8000</div></td></tr><tr><td style="font-weight:bold;vertical-align:top;">server_protocol</td><td style="vertical-align:top;">:</td><td><div>HTTP/1.1</div></td></tr><tr><td style="font-weight:bold;vertical-align:top;">server_software</td><td style="vertical-align:top;">:</td><td><div>Rocket 1.2.6</div></td></tr><tr><td style="font-weight:bold;vertical-align:top;">web2py_path</td><td style="vertical-align:top;">:</td><td><div>/Users/Shakti/Downloads/web2py/web2py.app/Contents/Resources</div></td></tr><tr><td style="font-weight:bold;vertical-align:top;">web2py_version</td><td style="vertical-align:top;">:</td><td><div>2.13.4-stable+timestamp.2015.12.26.04.59.39</div></td></tr><tr><td style="font-weight:bold;vertical-align:top;">wsgi.errors</td><td style="vertical-align:top;">:</td><td><div>&lt;open file &#x27;&lt;stderr&gt;&#x27;, mode &#x27;w&#x27; at 0x100565270&gt;</div></td></tr><tr><td style="font-weight:bold;vertical-align:top;">wsgi.file_wrapper</td><td style="vertical-align:top;">:</td><td><div>&lt;class wsgiref.util.FileWrapper at 0x10406a390&gt;</div></td></tr><tr><td style="font-weight:bold;vertical-align:top;">wsgi.input</td><td style="vertical-align:top;">:</td><td><div>&lt;socket._fileobject object at 0x1043e7750&gt;</div></td></tr><tr><td style="font-weight:bold;vertical-align:top;">wsgi.multiprocess</td><td style="vertical-align:top;">:</td><td><div>False</div></td></tr><tr><td style="font-weight:bold;vertical-align:top;">wsgi.multithread</td><td style="vertical-align:top;">:</td><td><div>True</div></td></tr><tr><td style="font-weight:bold;vertical-align:top;">wsgi.run_once</td><td style="vertical-align:top;">:</td><td><div>False</div></td></tr><tr><td style="font-weight:bold;vertical-align:top;">wsgi.url_scheme</td><td style="vertical-align:top;">:</td><td><div>http</div></td></tr><tr><td style="font-weight:bold;vertical-align:top;">wsgi.version</td><td style="vertical-align:top;">:</td><td><div><table><tr><td><div>1</div></td></tr><tr><td><div>0</div></td></tr></table></div></td></tr><tr><td style="font-weight:bold;vertical-align:top;">wsgi_errors</td><td style="vertical-align:top;">:</td><td><div>&lt;open file &#x27;&lt;stderr&gt;&#x27;, mode &#x27;w&#x27; at 0x100565270&gt;</div></td></tr><tr><td style="font-weight:bold;vertical-align:top;">wsgi_file_wrapper</td><td style="vertical-align:top;">:</td><td><div>&lt;class wsgiref.util.FileWrapper at 0x10406a390&gt;</div></td></tr><tr><td style="font-weight:bold;vertical-align:top;">wsgi_input</td><td style="vertical-align:top;">:</td><td><div>&lt;socket._fileobject object at 0x1043e7750&gt;</div></td></tr><tr><td style="font-weight:bold;vertical-align:top;">wsgi_multiprocess</td><td style="vertical-align:top;">:</td><td><div>False</div></td></tr><tr><td style="font-weight:bold;vertical-align:top;">wsgi_multithread</td><td style="vertical-align:top;">:</td><td><div>True</div></td></tr><tr><td style="font-weight:bold;vertical-align:top;">wsgi_run_once</td><td style="vertical-align:top;">:</td><td><div>False</div></td></tr><tr><td style="font-weight:bold;vertical-align:top;">wsgi_url_scheme</td><td style="vertical-align:top;">:</td><td><div>http</div></td></tr><tr><td style="font-weight:bold;vertical-align:top;">wsgi_version</td><td style="vertical-align:top;">:</td><td><div><table><tr><td><div>1</div></td></tr><tr><td><div>0</div></td></tr></table></div></td></tr></table></div></td></tr><tr><td style="font-weight:bold;vertical-align:top;">extension</td><td style="vertical-align:top;">:</td><td><div>json</div></td></tr><tr><td style="font-weight:bold;vertical-align:top;">folder</td><td style="vertical-align:top;">:</td><td><div>/Users/Shakti/Downloads/web2py/web2py.app/Contents/Resources/applications/Complaint_Portal/</div></td></tr><tr><td style="font-weight:bold;vertical-align:top;">function</td><td style="vertical-align:top;">:</td><td><div>password_reset</div></td></tr><tr><td style="font-weight:bold;vertical-align:top;">global_settings</td><td style="vertical-align:top;">:</td><td><div><table><tr><td style="font-weight:bold;vertical-align:top;">app_folders</td><td style="vertical-align:top;">:</td><td><div>set([&#x27;/Users/Shakti/Downloads/web2py/web2py.app/Contents/Resources/applications/welcome/&#x27;, &#x27;/Users/Shakti/Downloads/web2py/web2py.app/Contents/Resources/applications/admin/&#x27;, &#x27;/Users/Shakti/Downloads/web2py/web2py.app/Contents/Resources/applications/Complaint_Portal/&#x27;])</div></td></tr><tr><td style="font-weight:bold;vertical-align:top;">applications_parent</td><td style="vertical-align:top;">:</td><td><div>/Users/Shakti/Downloads/web2py/web2py.app/Contents/Resources</div></td></tr><tr><td style="font-weight:bold;vertical-align:top;">cmd_args</td><td style="vertical-align:top;">:</td><td><div><table></table></div></td></tr><tr><td style="font-weight:bold;vertical-align:top;">cmd_options</td><td style="vertical-align:top;">:</td><td><div>&lt;Values at 0x10403ad88: {&#x27;verbose&#x27;: False, &#x27;ip&#x27;: &#x27;127.0.0.1&#x27;, &#x27;debuglevel&#x27;: 30, &#x27;with_scheduler&#x27;: False, &#x27;ips&#x27;: [&#x27;10.192.45.89&#x27;, &#x27;fe80::daa2:5eff:fe8c:4b5d%en1&#x27;], &#x27;shutdown_timeout&#x27;: 5, &#x27;taskbar&#x27;: False, &#x27;with_coverage&#x27;: False, &#x27;scheduler_groups&#x27;: None, &#x27;port&#x27;: 8000, &#x27;maxthreads&#x27;: None, &#x27;softcron&#x27;: False, &#x27;server_name&#x27;: &#x27;Shakti.local&#x27;, &#x27;bpython&#x27;: False, &#x27;nogui&#x27;: False, &#x27;pid_filename&#x27;: &#x27;httpserver.pid&#x27;, &#x27;print_errors&#x27;: False, &#x27;extcron&#x27;: False, &#x27;runcron&#x27;: False, &#x27;run_system_tests&#x27;: False, &#x27;test&#x27;: None, &#x27;folder&#x27;: &#x27;/Users/Shakti/Downloads/web2py/web2py.app/Contents/Resources&#x27;, &#x27;config&#x27;: &#x27;&#x27;, &#x27;minthreads&#x27;: None, &#x27;shell&#x27;: None, &#x27;run&#x27;: &#x27;&#x27;, &#x27;log_filename&#x27;: &#x27;httpserver.log&#x27;, &#x27;profiler_dir&#x27;: None, &#x27;args&#x27;: [&#x27;&#x27;], &#x27;socket_timeout&#x27;: 5, &#x27;ssl_ca_certificate&#x27;: None, &#x27;scheduler&#x27;: None, &#x27;interfaces&#x27;: None, &#x27;ssl_private_key&#x27;: &#x27;&#x27;, &#x27;gae&#x27;: None, &#x27;password&#x27;: &#x27;&lt;ask&gt;&#x27;, &#x27;request_queue_size&#x27;: 5, &#x27;ssl_certificate&#x27;: &#x27;&#x27;, &#x27;cronjob&#x27;: False, &#x27;numthreads&#x27;: None, &#x27;quiet&#x27;: False, &#x27;import_models&#x27;: False, &#x27;timeout&#x27;: 10, &#x27;plain&#x27;: False, &#x27;nobanner&#x27;: False}&gt;</div></td></tr><tr><td style="font-weight:bold;vertical-align:top;">db_sessions</td><td style="vertical-align:top;">:</td><td><div>set([])</div></td></tr><tr><td style="font-weight:bold;vertical-align:top;">debugging</td><td style="vertical-align:top;">:</td><td><div>True</div></td></tr><tr><td style="font-weight:bold;vertical-align:top;">gluon_parent</td><td style="vertical-align:top;">:</td><td><div>/Users/Shakti/Downloads/web2py/web2py.app/Contents/Resources</div></td></tr><tr><td style="font-weight:bold;vertical-align:top;">is_jython</td><td style="vertical-align:top;">:</td><td><div>False</div></td></tr><tr><td style="font-weight:bold;vertical-align:top;">is_pypy</td><td style="vertical-align:top;">:</td><td><div>False</div></td></tr><tr><td style="font-weight:bold;vertical-align:top;">is_source</td><td style="vertical-align:top;">:</td><td><div>True</div></td></tr><tr><td style="font-weight:bold;vertical-align:top;">local_hosts</td><td style="vertical-align:top;">:</td><td><div><table><tr><td><div>10.192.45.89</div></td></tr><tr><td><div>::ffff:127.0.0.1</div></td></tr><tr><td><div>::1</div></td></tr><tr><td><div>Shakti.local</div></td></tr><tr><td><div>fe80::daa2:5eff:fe8c:4b5d%en1</div></td></tr><tr><td><div>127.0.0.1</div></td></tr></table></div></td></tr><tr><td style="font-weight:bold;vertical-align:top;">web2py_version</td><td style="vertical-align:top;">:</td><td><div>2.13.4-stable+timestamp.2015.12.26.04.59.39</div></td></tr></table></div></td></tr><tr><td style="font-weight:bold;vertical-align:top;">is_https</td><td style="vertical-align:top;">:</td><td><div>False</div></td></tr><tr><td style="font-weight:bold;vertical-align:top;">is_local</td><td style="vertical-align:top;">:</td><td><div>True</div></td></tr><tr><td style="font-weight:bold;vertical-align:top;">is_restful</td><td style="vertical-align:top;">:</td><td><div>False</div></td></tr><tr><td style="font-weight:bold;vertical-align:top;">is_scheduler</td><td style="vertical-align:top;">:</td><td><div>False</div></td></tr><tr><td style="font-weight:bold;vertical-align:top;">is_shell</td><td style="vertical-align:top;">:</td><td><div>False</div></td></tr><tr><td style="font-weight:bold;vertical-align:top;">now</td><td style="vertical-align:top;">:</td><td><div>datetime.datetime(2016, 3, 29, 16, 16, 8, 711777)</div></td></tr><tr><td style="font-weight:bold;vertical-align:top;">raw_args</td><td style="vertical-align:top;">:</td><td><div></div></td></tr><tr><td style="font-weight:bold;vertical-align:top;">raw_extension</td><td style="vertical-align:top;">:</td><td><div>json</div></td></tr><tr><td style="font-weight:bold;vertical-align:top;">url</td><td style="vertical-align:top;">:</td><td><div>/Complaint_Portal/APIs/password_reset.json</div></td></tr><tr><td style="font-weight:bold;vertical-align:top;">utcnow</td><td style="vertical-align:top;">:</td><td><div>datetime.datetime(2016, 3, 29, 10, 46, 8, 711790)</div></td></tr><tr><td style="font-weight:bold;vertical-align:top;">wsgi</td><td style="vertical-align:top;">:</td><td><div>&lt;gluon.main.LazyWSGI object at 0x10a0c9490&gt;</div></td></tr></table></div>'
tRp57
sS'frames'
p58
(lp59
(dp60
S'file'
p61
S'/Users/Shakti/Downloads/web2py/web2py.app/Contents/Resources/gluon/restricted.py'
p62
sS'dump'
p63
(dp64
sS'lnum'
p65
I227
sS'lines'
p66
(dp67
I224
S'            ccode = code'
p68
sI225
S'        else:'
p69
sI226
S'            ccode = compile2(code, layer)'
p70
sI227
S'        exec ccode in environment'
p71
sI228
S'    except HTTP:'
p72
sI229
S'        raise'
p73
sI230
S'    except RestrictedError:'
p74
sI231
S'        # do not encapsulate (obfuscate) the original RestrictedError'
p75
sI222
S'    try:'
p76
sI223
S'        if isinstance(code, types.CodeType):'
p77
ssS'call'
p78
S"(code='def password_reset():\\n    if auth.is_logged_in()...\\nresponse._vars=response._caller(password_reset)\\n', environment={'A': <class 'gluon.html.A'>, 'ANY_OF': <class 'gluon.validators.ANY_OF'>, 'ASSIGNJS': <function ASSIGNJS>, 'AppConfig': <function AppConfig>, 'Auth': <class 'gluon.tools.Auth'>, 'B': <class 'gluon.html.B'>, 'BEAUTIFY': <class 'gluon.html.BEAUTIFY'>, 'BODY': <class 'gluon.html.BODY'>, 'BR': <class 'gluon.html.BR'>, 'BUTTON': <class 'gluon.html.BUTTON'>, ...}, layer='/Users/Shakti/Downloads/web2py/web2py.app/Conten...applications/Complaint_Portal/controllers/APIs.py')"
p79
sS'func'
p80
S'restricted'
p81
sa(dp82
g61
S'/Users/Shakti/Downloads/web2py/web2py.app/Contents/Resources/applications/Complaint_Portal/controllers/APIs.py'
p83
sg63
(dp84
sg65
I201
sg66
(dp85
I192
S'def getListOfCategories():'
p86
sI193
S'    list_of_categories = []'
p87
sI194
S'    for categories in db().select(db.Complaint_Category.ALL):'
p88
sI195
S'        list_of_categories.append(categories.Category_Name)'
p89
sI196
S'    return list_of_categories'
p90
sI197
S''
sI198
S'#def getNotifications():'
p91
sI199
S'#    return dict()'
p92
sI190
S'    return dict(firstName=user.first_name, lastName=user.last_name, kerberosID=user.username, password=user.password, category=user.type_, hostel=user.Hostel)'
p93
sI191
S''
ssg78
S'()'
p94
sg80
S'<module>'
p95
sa(dp96
g61
S'/Users/Shakti/Downloads/web2py/web2py.app/Contents/Resources/gluon/globals.py'
p97
sg63
(dp98
sg65
I412
sg66
(dp99
I416
S"        self.generic_patterns = ['*']"
p100
sI407
S"        self.flash = ''            # used by the default view layout"
p101
sI408
S'        self.meta = Storage()      # used by web2py_ajax.html'
p102
sI409
S'        self.menu = []             # used by the default view layout'
p103
sI410
S'        self.files = []            # used by web2py_ajax.html'
p104
sI411
S'        self._vars = None'
p105
sI412
S'        self._caller = lambda f: f()'
p106
sI413
S'        self._view_environment = None'
p107
sI414
S'        self._custom_commit = None'
p108
sI415
S'        self._custom_rollback = None'
p109
ssg78
S'(f=<function password_reset>)'
p110
sg80
S'<lambda>'
p111
sa(dp112
g61
S'/Users/Shakti/Downloads/web2py/web2py.app/Contents/Resources/applications/Complaint_Portal/controllers/APIs.py'
p113
sg63
(dp114
sg65
I6
sg66
(dp115
I2
S'    if auth.is_logged_in():'
p116
sI3
S'        user = db.users(auth.user.id)'
p117
sI4
S'        old_pass = str(request.vars["oldPass"]).strip()'
p118
sI5
S'        new_pass = str(request.vars["newPass"]).strip()'
p119
sI6
S'        user_pass = auth.user.password'
p120
sI7
S'        if user_pass==old_pass :'
p121
sI8
S'            auth.user.password = new_pass'
p122
sI9
S'            return dict(success=True)'
p123
sI10
S'        else:'
p124
sI11
S'            return dict(success=False)'
p125
ssg78
S'()'
p126
sg80
S'password_reset'
p127
sa(dp128
g61
S'/Users/Shakti/Downloads/web2py/web2py.app/Contents/Resources/gluon/packages/dal/pydal/objects.py'
p129
sg63
(dp130
sg65
I90
sg66
(dp131
I85
S''
sI86
S'    def __getattr__(self, k):'
p132
sI87
S'        try:'
p133
sI88
S'            return self.__getitem__(k)'
p134
sI89
S'        except KeyError:'
p135
sI90
S'            raise AttributeError'
p136
sI91
S''
sI92
S'    def __copy__(self):'
p137
sI93
S'        return Row(self)'
p138
sI94
S''
ssg78
S"(self=<Row {'username': 'ee1140710', 'registration_id'...il': 'ee1140710@iitd.ac.in', 'Hostel': 'Girnar'}>, k='password')"
p139
sg80
S'__getattr__'
p140
sasS'pyver'
p141
S'Python 2.7.3: /Users/Shakti/Downloads/web2py/web2py.app/Contents/MacOS/python (prefix: /Users/Shakti/Downloads/web2py/web2py.app/Contents/Resources)'
p142
sS'session'
p143
g56
(S's~\n\x00\x00<div><table><tr><td style="font-weight:bold;vertical-align:top;">auth</td><td style="vertical-align:top;">:</td><td><div><table><tr><td style="font-weight:bold;vertical-align:top;">expiration</td><td style="vertical-align:top;">:</td><td><div>3600</div></td></tr><tr><td style="font-weight:bold;vertical-align:top;">hmac_key</td><td style="vertical-align:top;">:</td><td><div>1f6f50a3-5bb8-4c42-ac94-dd6582df5364</div></td></tr><tr><td style="font-weight:bold;vertical-align:top;">last_visit</td><td style="vertical-align:top;">:</td><td><div>datetime.datetime(2016, 3, 29, 16, 15, 26, 372360)</div></td></tr><tr><td style="font-weight:bold;vertical-align:top;">user</td><td style="vertical-align:top;">:</td><td><div><table><tr><td style="font-weight:bold;vertical-align:top;">Hostel</td><td style="vertical-align:top;">:</td><td><div>Girnar</div></td></tr><tr><td style="font-weight:bold;vertical-align:top;">email</td><td style="vertical-align:top;">:</td><td><div>ee1140710@iitd.ac.in</div></td></tr><tr><td style="font-weight:bold;vertical-align:top;">entry_no</td><td style="vertical-align:top;">:</td><td><div>2014EE10710</div></td></tr><tr><td style="font-weight:bold;vertical-align:top;">first_name</td><td style="vertical-align:top;">:</td><td><div>Akshit</div></td></tr><tr><td style="font-weight:bold;vertical-align:top;">id</td><td style="vertical-align:top;">:</td><td><div>1L</div></td></tr><tr><td style="font-weight:bold;vertical-align:top;">last_name</td><td style="vertical-align:top;">:</td><td><div>Tyagi</div></td></tr><tr><td style="font-weight:bold;vertical-align:top;">registration_id</td><td style="vertical-align:top;">:</td><td><div></div></td></tr><tr><td style="font-weight:bold;vertical-align:top;">registration_key</td><td style="vertical-align:top;">:</td><td><div></div></td></tr><tr><td style="font-weight:bold;vertical-align:top;">reset_password_key</td><td style="vertical-align:top;">:</td><td><div></div></td></tr><tr><td style="font-weight:bold;vertical-align:top;">type_</td><td style="vertical-align:top;">:</td><td><div>0L</div></td></tr><tr><td style="font-weight:bold;vertical-align:top;">username</td><td style="vertical-align:top;">:</td><td><div>ee1140710</div></td></tr></table></div></td></tr><tr><td style="font-weight:bold;vertical-align:top;">user_groups</td><td style="vertical-align:top;">:</td><td><div><table><tr><td style="font-weight:bold;vertical-align:top;">1</td><td style="vertical-align:top;">:</td><td><div>user_1</div></td></tr></table></div></td></tr></table></div></td></tr><tr><td style="font-weight:bold;vertical-align:top;">flash</td><td style="vertical-align:top;">:</td><td><div>None</div></td></tr></table></div>'
tRp144
sS'etype'
p145
S"<type 'exceptions.AttributeError'>"
p146
sS'date'
p147
S'Tue Mar 29 16:16:08 2016'
p148
sS'response'
p149
g56
(S's\xd4@\x00\x00<div><table><tr><td style="font-weight:bold;vertical-align:top;">body</td><td style="vertical-align:top;">:</td><td><div>&lt;cStringIO.StringO object at 0x10a0d7ed8&gt;</div></td></tr><tr><td style="font-weight:bold;vertical-align:top;">cookies</td><td style="vertical-align:top;">:</td><td><div><table><tr><td style="font-weight:bold;vertical-align:top;">session_id_complaint_portal</td><td style="vertical-align:top;">:</td><td><div>10.192.45.89-0ccff27d-114a-4a22-b813-3b430eb22bad<table><tr><td style="font-weight:bold;vertical-align:top;">comment</td><td style="vertical-align:top;">:</td><td><div></div></td></tr><tr><td style="font-weight:bold;vertical-align:top;">domain</td><td style="vertical-align:top;">:</td><td><div></div></td></tr><tr><td style="font-weight:bold;vertical-align:top;">expires</td><td style="vertical-align:top;">:</td><td><div></div></td></tr><tr><td style="font-weight:bold;vertical-align:top;">httponly</td><td style="vertical-align:top;">:</td><td><div></div></td></tr><tr><td style="font-weight:bold;vertical-align:top;">max-age</td><td style="vertical-align:top;">:</td><td><div></div></td></tr><tr><td style="font-weight:bold;vertical-align:top;">path</td><td style="vertical-align:top;">:</td><td><div>/</div></td></tr><tr><td style="font-weight:bold;vertical-align:top;">secure</td><td style="vertical-align:top;">:</td><td><div></div></td></tr><tr><td style="font-weight:bold;vertical-align:top;">version</td><td style="vertical-align:top;">:</td><td><div></div></td></tr></table></div></td></tr></table></div></td></tr><tr><td style="font-weight:bold;vertical-align:top;">delimiters</td><td style="vertical-align:top;">:</td><td><div><table><tr><td><div>{{</div></td></tr><tr><td><div>}}</div></td></tr></table></div></td></tr><tr><td style="font-weight:bold;vertical-align:top;">files</td><td style="vertical-align:top;">:</td><td><div><table></table></div></td></tr><tr><td style="font-weight:bold;vertical-align:top;">flash</td><td style="vertical-align:top;">:</td><td><div></div></td></tr><tr><td style="font-weight:bold;vertical-align:top;">form_label_separator</td><td style="vertical-align:top;">:</td><td><div></div></td></tr><tr><td style="font-weight:bold;vertical-align:top;">formstyle</td><td style="vertical-align:top;">:</td><td><div>bootstrap3_inline</div></td></tr><tr><td style="font-weight:bold;vertical-align:top;">generic_patterns</td><td style="vertical-align:top;">:</td><td><div><table><tr><td><div>*</div></td></tr></table></div></td></tr><tr><td style="font-weight:bold;vertical-align:top;">google_analytics_id</td><td style="vertical-align:top;">:</td><td><div>None</div></td></tr><tr><td style="font-weight:bold;vertical-align:top;">headers</td><td style="vertical-align:top;">:</td><td><div><table><tr><td style="font-weight:bold;vertical-align:top;">X-Powered-By</td><td style="vertical-align:top;">:</td><td><div>web2py</div></td></tr></table></div></td></tr><tr><td style="font-weight:bold;vertical-align:top;">logo</td><td style="vertical-align:top;">:</td><td><div><a class="navbar-brand" href="http://www.web2py.com/" id="web2py-logo"><b>web<span>2</span>py</b>&trade;&nbsp;</a></div></td></tr><tr><td style="font-weight:bold;vertical-align:top;">menu</td><td style="vertical-align:top;">:</td><td><div><table><tr><td><div><table><tr><td><div>Home</div></td></tr><tr><td><div>False</div></td></tr><tr><td><div>/Complaint_Portal/default/index.json</div></td></tr><tr><td><div><table></table></div></td></tr></table></div></td></tr><tr><td><div><table><tr><td><div>My Sites</div></td></tr><tr><td><div>False</div></td></tr><tr><td><div>/admin/default/site.json</div></td></tr></table></div></td></tr><tr><td><div><table><tr><td><div>This App</div></td></tr><tr><td><div>False</div></td></tr><tr><td><div>#</div></td></tr><tr><td><div><table><tr><td><div><table><tr><td><div>Design</div></td></tr><tr><td><div>False</div></td></tr><tr><td><div>/admin/default/design.json/Complaint_Portal</div></td></tr></table></div></td></tr><tr><td><div><li class="divider"></li></div></td></tr><tr><td><div><table><tr><td><div>Controller</div></td></tr><tr><td><div>False</div></td></tr><tr><td><div>/admin/default/edit.json/Complaint_Portal/controllers/APIs.py</div></td></tr></table></div></td></tr><tr><td><div><table><tr><td><div>View</div></td></tr><tr><td><div>False</div></td></tr><tr><td><div>/admin/default/edit.json/Complaint_Portal/views/APIs/password_reset.json</div></td></tr></table></div></td></tr><tr><td><div><table><tr><td><div>DB Model</div></td></tr><tr><td><div>False</div></td></tr><tr><td><div>/admin/default/edit.json/Complaint_Portal/models/db.py</div></td></tr></table></div></td></tr><tr><td><div><table><tr><td><div>Menu Model</div></td></tr><tr><td><div>False</div></td></tr><tr><td><div>/admin/default/edit.json/Complaint_Portal/models/menu.py</div></td></tr></table></div></td></tr><tr><td><div><table><tr><td><div>Config.ini</div></td></tr><tr><td><div>False</div></td></tr><tr><td><div>/admin/default/edit.json/Complaint_Portal/private/appconfig.ini</div></td></tr></table></div></td></tr><tr><td><div><table><tr><td><div>Layout</div></td></tr><tr><td><div>False</div></td></tr><tr><td><div>/admin/default/edit.json/Complaint_Portal/views/layout.html</div></td></tr></table></div></td></tr><tr><td><div><table><tr><td><div>Stylesheet</div></td></tr><tr><td><div>False</div></td></tr><tr><td><div>/admin/default/edit.json/Complaint_Portal/static/css/web2py-bootstrap3.css</div></td></tr></table></div></td></tr><tr><td><div><table><tr><td><div>Database</div></td></tr><tr><td><div>False</div></td></tr><tr><td><div>/Complaint_Portal/appadmin/index.json</div></td></tr></table></div></td></tr><tr><td><div><table><tr><td><div>Errors</div></td></tr><tr><td><div>False</div></td></tr><tr><td><div>/admin/default/errors.json/Complaint_Portal</div></td></tr></table></div></td></tr><tr><td><div><table><tr><td><div>About</div></td></tr><tr><td><div>False</div></td></tr><tr><td><div>/admin/default/about.json/Complaint_Portal</div></td></tr></table></div></td></tr></table></div></td></tr></table></div></td></tr><tr><td><div><table><tr><td><div>web2py.com</div></td></tr><tr><td><div>False</div></td></tr><tr><td><div>#</div></td></tr><tr><td><div><table><tr><td><div><table><tr><td><div>Download</div></td></tr><tr><td><div>False</div></td></tr><tr><td><div>http://www.web2py.com/examples/default/download</div></td></tr></table></div></td></tr><tr><td><div><table><tr><td><div>Support</div></td></tr><tr><td><div>False</div></td></tr><tr><td><div>http://www.web2py.com/examples/default/support</div></td></tr></table></div></td></tr><tr><td><div><table><tr><td><div>Demo</div></td></tr><tr><td><div>False</div></td></tr><tr><td><div>http://web2py.com/demo_admin</div></td></tr></table></div></td></tr><tr><td><div><table><tr><td><div>Quick Examples</div></td></tr><tr><td><div>False</div></td></tr><tr><td><div>http://web2py.com/examples/default/examples</div></td></tr></table></div></td></tr><tr><td><div><table><tr><td><div>FAQ</div></td></tr><tr><td><div>False</div></td></tr><tr><td><div>http://web2py.com/AlterEgo</div></td></tr></table></div></td></tr><tr><td><div><table><tr><td><div>Videos</div></td></tr><tr><td><div>False</div></td></tr><tr><td><div>http://www.web2py.com/examples/default/videos/</div></td></tr></table></div></td></tr><tr><td><div><table><tr><td><div>Free Applications</div></td></tr><tr><td><div>False</div></td></tr><tr><td><div>http://web2py.com/appliances</div></td></tr></table></div></td></tr><tr><td><div><table><tr><td><div>Plugins</div></td></tr><tr><td><div>False</div></td></tr><tr><td><div>http://web2py.com/plugins</div></td></tr></table></div></td></tr><tr><td><div><table><tr><td><div>Recipes</div></td></tr><tr><td><div>False</div></td></tr><tr><td><div>http://web2pyslices.com/</div></td></tr></table></div></td></tr></table></div></td></tr></table></div></td></tr><tr><td><div><table><tr><td><div>Documentation</div></td></tr><tr><td><div>False</div></td></tr><tr><td><div>#</div></td></tr><tr><td><div><table><tr><td><div><table><tr><td><div>Online book</div></td></tr><tr><td><div>False</div></td></tr><tr><td><div>http://www.web2py.com/book</div></td></tr></table></div></td></tr><tr><td><div><li class="divider"></li></div></td></tr><tr><td><div><table><tr><td><div>Preface</div></td></tr><tr><td><div>False</div></td></tr><tr><td><div>http://www.web2py.com/book/default/chapter/00</div></td></tr></table></div></td></tr><tr><td><div><table><tr><td><div>Introduction</div></td></tr><tr><td><div>False</div></td></tr><tr><td><div>http://www.web2py.com/book/default/chapter/01</div></td></tr></table></div></td></tr><tr><td><div><table><tr><td><div>Python</div></td></tr><tr><td><div>False</div></td></tr><tr><td><div>http://www.web2py.com/book/default/chapter/02</div></td></tr></table></div></td></tr><tr><td><div><table><tr><td><div>Overview</div></td></tr><tr><td><div>False</div></td></tr><tr><td><div>http://www.web2py.com/book/default/chapter/03</div></td></tr></table></div></td></tr><tr><td><div><table><tr><td><div>The Core</div></td></tr><tr><td><div>False</div></td></tr><tr><td><div>http://www.web2py.com/book/default/chapter/04</div></td></tr></table></div></td></tr><tr><td><div><table><tr><td><div>The Views</div></td></tr><tr><td><div>False</div></td></tr><tr><td><div>http://www.web2py.com/book/default/chapter/05</div></td></tr></table></div></td></tr><tr><td><div><table><tr><td><div>Database</div></td></tr><tr><td><div>False</div></td></tr><tr><td><div>http://www.web2py.com/book/default/chapter/06</div></td></tr></table></div></td></tr><tr><td><div><table><tr><td><div>Forms and Validators</div></td></tr><tr><td><div>False</div></td></tr><tr><td><div>http://www.web2py.com/book/default/chapter/07</div></td></tr></table></div></td></tr><tr><td><div><table><tr><td><div>Email and SMS</div></td></tr><tr><td><div>False</div></td></tr><tr><td><div>http://www.web2py.com/book/default/chapter/08</div></td></tr></table></div></td></tr><tr><td><div><table><tr><td><div>Access Control</div></td></tr><tr><td><div>False</div></td></tr><tr><td><div>http://www.web2py.com/book/default/chapter/09</div></td></tr></table></div></td></tr><tr><td><div><table><tr><td><div>Services</div></td></tr><tr><td><div>False</div></td></tr><tr><td><div>http://www.web2py.com/book/default/chapter/10</div></td></tr></table></div></td></tr><tr><td><div><table><tr><td><div>Ajax Recipes</div></td></tr><tr><td><div>False</div></td></tr><tr><td><div>http://www.web2py.com/book/default/chapter/11</div></td></tr></table></div></td></tr><tr><td><div><table><tr><td><div>Components and Plugins</div></td></tr><tr><td><div>False</div></td></tr><tr><td><div>http://www.web2py.com/book/default/chapter/12</div></td></tr></table></div></td></tr><tr><td><div><table><tr><td><div>Deployment Recipes</div></td></tr><tr><td><div>False</div></td></tr><tr><td><div>http://www.web2py.com/book/default/chapter/13</div></td></tr></table></div></td></tr><tr><td><div><table><tr><td><div>Other Recipes</div></td></tr><tr><td><div>False</div></td></tr><tr><td><div>http://www.web2py.com/book/default/chapter/14</div></td></tr></table></div></td></tr><tr><td><div><table><tr><td><div>Helping web2py</div></td></tr><tr><td><div>False</div></td></tr><tr><td><div>http://www.web2py.com/book/default/chapter/15</div></td></tr></table></div></td></tr><tr><td><div><table><tr><td><div>Buy web2py\'s book</div></td></tr><tr><td><div>False</div></td></tr><tr><td><div>http://stores.lulu.com/web2py</div></td></tr></table></div></td></tr></table></div></td></tr></table></div></td></tr><tr><td><div><table><tr><td><div>Community</div></td></tr><tr><td><div>False</div></td></tr><tr><td><div>None</div></td></tr><tr><td><div><table><tr><td><div><table><tr><td><div>Groups</div></td></tr><tr><td><div>False</div></td></tr><tr><td><div>http://www.web2py.com/examples/default/usergroups</div></td></tr></table></div></td></tr><tr><td><div><table><tr><td><div>Twitter</div></td></tr><tr><td><div>False</div></td></tr><tr><td><div>http://twitter.com/web2py</div></td></tr></table></div></td></tr><tr><td><div><table><tr><td><div>Live Chat</div></td></tr><tr><td><div>False</div></td></tr><tr><td><div>http://webchat.freenode.net/?channels=web2py</div></td></tr></table></div></td></tr></table></div></td></tr></table></div></td></tr></table></div></td></tr><tr><td style="font-weight:bold;vertical-align:top;">meta</td><td style="vertical-align:top;">:</td><td><div><table><tr><td style="font-weight:bold;vertical-align:top;">author</td><td style="vertical-align:top;">:</td><td><div>Your Name &lt;you@example.com&gt;</div></td></tr><tr><td style="font-weight:bold;vertical-align:top;">description</td><td style="vertical-align:top;">:</td><td><div>a cool new app</div></td></tr><tr><td style="font-weight:bold;vertical-align:top;">generator</td><td style="vertical-align:top;">:</td><td><div>Web2py Web Framework</div></td></tr><tr><td style="font-weight:bold;vertical-align:top;">keywords</td><td style="vertical-align:top;">:</td><td><div>web2py, python, framework</div></td></tr></table></div></td></tr><tr><td style="font-weight:bold;vertical-align:top;">models_to_run</td><td style="vertical-align:top;">:</td><td><div><table><tr><td><div>^\\w+\\.py$</div></td></tr><tr><td><div>^APIs/\\w+\\.py$</div></td></tr><tr><td><div>^APIs/password_reset/\\w+\\.py$</div></td></tr></table></div></td></tr><tr><td style="font-weight:bold;vertical-align:top;">postprocessing</td><td style="vertical-align:top;">:</td><td><div><table></table></div></td></tr><tr><td style="font-weight:bold;vertical-align:top;">session_client</td><td style="vertical-align:top;">:</td><td><div>10.192.45.89</div></td></tr><tr><td style="font-weight:bold;vertical-align:top;">session_cookie_compression_level</td><td style="vertical-align:top;">:</td><td><div>None</div></td></tr><tr><td style="font-weight:bold;vertical-align:top;">session_cookie_expires</td><td style="vertical-align:top;">:</td><td><div>None</div></td></tr><tr><td style="font-weight:bold;vertical-align:top;">session_cookie_key</td><td style="vertical-align:top;">:</td><td><div>None</div></td></tr><tr><td style="font-weight:bold;vertical-align:top;">session_data_name</td><td style="vertical-align:top;">:</td><td><div>session_data_complaint_portal</div></td></tr><tr><td style="font-weight:bold;vertical-align:top;">session_file</td><td style="vertical-align:top;">:</td><td><div>&lt;open file &#x27;/Users/Shakti/Downloads/web2py/web2py.app/Contents/Resources/applications/Complaint_Portal/sessions/0db/083/10.192.45.89-0ccff27d-114a-4a22-b813-3b430eb22bad&#x27;, mode &#x27;rb+&#x27; at 0x10a0f75d0&gt;</div></td></tr><tr><td style="font-weight:bold;vertical-align:top;">session_filename</td><td style="vertical-align:top;">:</td><td><div>/Users/Shakti/Downloads/web2py/web2py.app/Contents/Resources/applications/Complaint_Portal/sessions/10.192.45.89-0ccff27d-114a-4a22-b813-3b430eb22bad</div></td></tr><tr><td style="font-weight:bold;vertical-align:top;">session_hash</td><td style="vertical-align:top;">:</td><td><div>d828b730f73a5e9696dd80324b27652b</div></td></tr><tr><td style="font-weight:bold;vertical-align:top;">session_id</td><td style="vertical-align:top;">:</td><td><div>10.192.45.89-0ccff27d-114a-4a22-b813-3b430eb22bad</div></td></tr><tr><td style="font-weight:bold;vertical-align:top;">session_id_name</td><td style="vertical-align:top;">:</td><td><div>session_id_complaint_portal</div></td></tr><tr><td style="font-weight:bold;vertical-align:top;">session_locked</td><td style="vertical-align:top;">:</td><td><div>True</div></td></tr><tr><td style="font-weight:bold;vertical-align:top;">session_masterapp</td><td style="vertical-align:top;">:</td><td><div>Complaint_Portal</div></td></tr><tr><td style="font-weight:bold;vertical-align:top;">session_new</td><td style="vertical-align:top;">:</td><td><div>False</div></td></tr><tr><td style="font-weight:bold;vertical-align:top;">session_storage_type</td><td style="vertical-align:top;">:</td><td><div>file</div></td></tr><tr><td style="font-weight:bold;vertical-align:top;">status</td><td style="vertical-align:top;">:</td><td><div>200</div></td></tr><tr><td style="font-weight:bold;vertical-align:top;">subtitle</td><td style="vertical-align:top;">:</td><td><div></div></td></tr><tr><td style="font-weight:bold;vertical-align:top;">title</td><td style="vertical-align:top;">:</td><td><div>Complaint Portal</div></td></tr><tr><td style="font-weight:bold;vertical-align:top;">view</td><td style="vertical-align:top;">:</td><td><div>APIs/password_reset.json</div></td></tr></table></div>'
tRp150
sS'locals'
p151
(dp152
S'k'
S"'password'"
p153
sS'self'
p154
S"<Row {'username': 'ee1140710', 'registration_id'...il': 'ee1140710@iitd.ac.in', 'Hostel': 'Girnar'}>"
p155
sssS'traceback'
p156
S'Traceback (most recent call last):\n  File "/Users/Shakti/Downloads/web2py/web2py.app/Contents/Resources/gluon/restricted.py", line 227, in restricted\n  File "/Users/Shakti/Downloads/web2py/web2py.app/Contents/Resources/applications/Complaint_Portal/controllers/APIs.py", line 201, in <module>\n  File "/Users/Shakti/Downloads/web2py/web2py.app/Contents/Resources/gluon/globals.py", line 412, in <lambda>\n  File "/Users/Shakti/Downloads/web2py/web2py.app/Contents/Resources/applications/Complaint_Portal/controllers/APIs.py", line 6, in password_reset\n  File "/Users/Shakti/Downloads/web2py/web2py.app/Contents/Resources/gluon/packages/dal/pydal/objects.py", line 90, in __getattr__\nAttributeError\n'
p157
s.